target datalayout = "e-m:e-p270:32:32-p271:32:32-p272:64:64-i64:64-i128:128-f80:128-n8:16:32:64-S128"
target triple = "x86_64-pc-linux-gnu"

%struct._cms_io_handler = type { ptr, ptr, i32, i32, [256 x i8], ptr, ptr, ptr, ptr, ptr }

@.str.8 = private unnamed_addr constant [26 x i8] c"Cannot get size of stream\00", align 1

; Function Attrs: nounwind uwtable
define hidden ptr @cmsOpenIOhandlerFromStream(ptr noundef %0, ptr noundef %1) #0 {
  %3 = alloca ptr, align 8
  %4 = alloca ptr, align 8
  %5 = alloca ptr, align 8
  %6 = alloca ptr, align 8
  %7 = alloca i32, align 4
  store ptr %0, ptr %4, align 8
  store ptr %1, ptr %5, align 8
  store ptr null, ptr %6, align 8
  %8 = load ptr, ptr %5, align 8
  %9 = call i64 @cmsfilelength(ptr noundef %8)
  %10 = trunc i64 %9 to i32
  store i32 %10, ptr %7, align 4
  %11 = load i32, ptr %7, align 4
  %12 = icmp slt i32 %11, 0
  br i1 %12, label %13, label %15

13:                                               ; preds = %2
  %14 = load ptr, ptr %4, align 8
  call void (ptr, i32, ptr, ...) @cmsSignalError(ptr noundef %14, i32 noundef 1, ptr noundef @.str.8)
  store ptr null, ptr %3, align 8
  br label %47

15:                                               ; preds = %2
  %16 = load ptr, ptr %4, align 8
  %17 = call ptr @_cmsMallocZero(ptr noundef %16, i32 noundef 320)
  store ptr %17, ptr %6, align 8
  %18 = load ptr, ptr %6, align 8
  %19 = icmp eq ptr %18, null
  br i1 %19, label %20, label %21

20:                                               ; preds = %15
  store ptr null, ptr %3, align 8
  br label %47

21:                                               ; preds = %15
  %22 = load ptr, ptr %4, align 8
  %23 = load ptr, ptr %6, align 8
  %24 = getelementptr inbounds %struct._cms_io_handler, ptr %23, i32 0, i32 1
  store ptr %22, ptr %24, align 8
  %25 = load ptr, ptr %5, align 8
  %26 = load ptr, ptr %6, align 8
  %27 = getelementptr inbounds %struct._cms_io_handler, ptr %26, i32 0, i32 0
  store ptr %25, ptr %27, align 8
  %28 = load ptr, ptr %6, align 8
  %29 = getelementptr inbounds %struct._cms_io_handler, ptr %28, i32 0, i32 2
  store i32 0, ptr %29, align 8
  %30 = load i32, ptr %7, align 4
  %31 = load ptr, ptr %6, align 8
  %32 = getelementptr inbounds %struct._cms_io_handler, ptr %31, i32 0, i32 3
  store i32 %30, ptr %32, align 4
  %33 = load ptr, ptr %6, align 8
  %34 = getelementptr inbounds %struct._cms_io_handler, ptr %33, i32 0, i32 4
  %35 = getelementptr inbounds [256 x i8], ptr %34, i64 0, i64 0
  store i8 0, ptr %35, align 8
  %36 = load ptr, ptr %6, align 8
  %37 = getelementptr inbounds %struct._cms_io_handler, ptr %36, i32 0, i32 5
  store ptr @FileRead, ptr %37, align 8
  %38 = load ptr, ptr %6, align 8
  %39 = getelementptr inbounds %struct._cms_io_handler, ptr %38, i32 0, i32 6
  store ptr @FileSeek, ptr %39, align 8
  %40 = load ptr, ptr %6, align 8
  %41 = getelementptr inbounds %struct._cms_io_handler, ptr %40, i32 0, i32 7
  store ptr @FileClose, ptr %41, align 8
  %42 = load ptr, ptr %6, align 8
  %43 = getelementptr inbounds %struct._cms_io_handler, ptr %42, i32 0, i32 8
  store ptr @FileTell, ptr %43, align 8
  %44 = load ptr, ptr %6, align 8
  %45 = getelementptr inbounds %struct._cms_io_handler, ptr %44, i32 0, i32 9
  store ptr @FileWrite, ptr %45, align 8
  %46 = load ptr, ptr %6, align 8
  store ptr %46, ptr %3, align 8
  br label %47

47:                                               ; preds = %21, %20, %13
  %48 = load ptr, ptr %3, align 8
  ret ptr %48
}