; Function Attrs: nounwind uwtable
define hidden ptr @cmsOpenIOhandlerFromStream(ptr noundef %0, ptr noundef %1) local_unnamed_addr #0 {
  %3 = tail call i64 @cmsfilelength(ptr noundef %1) #19
  %4 = trunc i64 %3 to i32
  %5 = icmp slt i32 %4, 0
  br i1 %5, label %6, label %7

6:                                                ; preds = %2
  tail call void (ptr, i32, ptr, ...) @cmsSignalError(ptr noundef %0, i32 noundef 1, ptr noundef nonnull @.str.8) #19
  br label %20

7:                                                ; preds = %2
  %8 = tail call ptr @_cmsMallocZero(ptr noundef %0, i32 noundef 320) #19
  %9 = icmp eq ptr %8, null
  br i1 %9, label %20, label %10

10:                                               ; preds = %7
  %11 = getelementptr inbounds i8, ptr %8, i64 8
  store ptr %0, ptr %11, align 8
  store ptr %1, ptr %8, align 8
  %12 = getelementptr inbounds i8, ptr %8, i64 16
  store i32 0, ptr %12, align 8
  %13 = getelementptr inbounds i8, ptr %8, i64 20
  store i32 %4, ptr %13, align 4
  %14 = getelementptr inbounds i8, ptr %8, i64 24
  store i8 0, ptr %14, align 8
  %15 = getelementptr inbounds i8, ptr %8, i64 280
  store ptr @FileRead, ptr %15, align 8
  %16 = getelementptr inbounds i8, ptr %8, i64 288
  store ptr @FileSeek, ptr %16, align 8
  %17 = getelementptr inbounds i8, ptr %8, i64 296
  store ptr @FileClose, ptr %17, align 8
  %18 = getelementptr inbounds i8, ptr %8, i64 304
  store ptr @FileTell, ptr %18, align 8
  %19 = getelementptr inbounds i8, ptr %8, i64 312
  store ptr @FileWrite, ptr %19, align 8
  br label %20

20:                                               ; preds = %7, %10, %6
  %.0 = phi ptr [ null, %6 ], [ %8, %10 ], [ null, %7 ]
  ret ptr %.0
}